target datalayout = "e-m:e-p270:32:32-p271:32:32-p272:64:64-i64:64-i128:128-f80:128-n8:16:32:64-S128"
target triple = "x86_64-pc-linux-gnu"

%"struct.dpx::ImageElement" = type { i32, i32, float, i32, float, i8, i8, i8, i8, i16, i16, i32, i32, i32, [32 x i8] }

; Function Attrs: mustprogress nounwind uwtable
define internal void @_ZL11EmptyStringPci(ptr noundef %0, i32 noundef %1) #6 {
  %3 = alloca ptr, align 8
  %4 = alloca i32, align 4
  %5 = alloca i32, align 4
  store ptr %0, ptr %3, align 8, !tbaa !45
  store i32 %1, ptr %4, align 4, !tbaa !42
  call void @llvm.lifetime.start.p0(i64 4, ptr %5) #5
  store i32 0, ptr %5, align 4, !tbaa !42
  br label %6

6:                                                ; preds = %16, %2
  %7 = load i32, ptr %5, align 4, !tbaa !42
  %8 = load i32, ptr %4, align 4, !tbaa !42
  %9 = icmp slt i32 %7, %8
  br i1 %9, label %11, label %10

10:                                               ; preds = %6
  call void @llvm.lifetime.end.p0(i64 4, ptr %5) #5
  br label %19

11:                                               ; preds = %6
  %12 = load ptr, ptr %3, align 8, !tbaa !45
  %13 = load i32, ptr %5, align 4, !tbaa !42
  %14 = sext i32 %13 to i64
  %15 = getelementptr inbounds i8, ptr %12, i64 %14
  store i8 0, ptr %15, align 1, !tbaa !8
  br label %16

16:                                               ; preds = %11
  %17 = load i32, ptr %5, align 4, !tbaa !42
  %18 = add nsw i32 %17, 1
  store i32 %18, ptr %5, align 4, !tbaa !42
  br label %6, !llvm.loop !47

19:                                               ; preds = %10
  ret void
}

; Function Attrs: mustprogress uwtable
define hidden void @_ZN3dpx12ImageElementC2Ev(ptr noundef nonnull align 4 dereferenceable(72) %0) unnamed_addr #7 align 2 {
  %2 = alloca ptr, align 8
  store ptr %0, ptr %2, align 8, !tbaa !76
  %3 = load ptr, ptr %2, align 8
  %4 = getelementptr inbounds nuw %"struct.dpx::ImageElement", ptr %3, i32 0, i32 0
  store i32 -1, ptr %4, align 4, !tbaa !78
  %5 = getelementptr inbounds nuw %"struct.dpx::ImageElement", ptr %3, i32 0, i32 1
  store i32 -1, ptr %5, align 4, !tbaa !80
  %6 = getelementptr inbounds nuw %"struct.dpx::ImageElement", ptr %3, i32 0, i32 2
  store float 0x41F0000000000000, ptr %6, align 4, !tbaa !81
  %7 = getelementptr inbounds nuw %"struct.dpx::ImageElement", ptr %3, i32 0, i32 3
  store i32 -1, ptr %7, align 4, !tbaa !82
  %8 = getelementptr inbounds nuw %"struct.dpx::ImageElement", ptr %3, i32 0, i32 4
  store float 0x41F0000000000000, ptr %8, align 4, !tbaa !83
  %9 = getelementptr inbounds nuw %"struct.dpx::ImageElement", ptr %3, i32 0, i32 5
  store i8 -1, ptr %9, align 4, !tbaa !84
  %10 = getelementptr inbounds nuw %"struct.dpx::ImageElement", ptr %3, i32 0, i32 6
  store i8 -1, ptr %10, align 1, !tbaa !85
  %11 = getelementptr inbounds nuw %"struct.dpx::ImageElement", ptr %3, i32 0, i32 7
  store i8 -1, ptr %11, align 2, !tbaa !86
  %12 = getelementptr inbounds nuw %"struct.dpx::ImageElement", ptr %3, i32 0, i32 8
  store i8 -1, ptr %12, align 1, !tbaa !87
  %13 = getelementptr inbounds nuw %"struct.dpx::ImageElement", ptr %3, i32 0, i32 10
  store i16 -1, ptr %13, align 2, !tbaa !88
  %14 = getelementptr inbounds nuw %"struct.dpx::ImageElement", ptr %3, i32 0, i32 9
  store i16 -1, ptr %14, align 4, !tbaa !89
  %15 = getelementptr inbounds nuw %"struct.dpx::ImageElement", ptr %3, i32 0, i32 13
  store i32 -1, ptr %15, align 4, !tbaa !90
  %16 = getelementptr inbounds nuw %"struct.dpx::ImageElement", ptr %3, i32 0, i32 12
  store i32 -1, ptr %16, align 4, !tbaa !91
  %17 = getelementptr inbounds nuw %"struct.dpx::ImageElement", ptr %3, i32 0, i32 11
  store i32 -1, ptr %17, align 4, !tbaa !92
  %18 = getelementptr inbounds nuw %"struct.dpx::ImageElement", ptr %3, i32 0, i32 14
  %19 = getelementptr inbounds [32 x i8], ptr %18, i64 0, i64 0
  call void @_ZL11EmptyStringPci(ptr noundef %19, i32 noundef 32)
  ret void
}