; Function Attrs: mustprogress nofree norecurse nosync nounwind willreturn memory(argmem: write) uwtable
define hidden void @_ZN3dpx12ImageElementC2Ev(ptr noundef nonnull writeonly align 4 captures(none) dereferenceable(72) initializes((0, 72)) %0) unnamed_addr #7 align 2 {
  store i32 -1, ptr %0, align 4, !tbaa !3
  %2 = getelementptr inbounds nuw i8, ptr %0, i64 4
  store i32 -1, ptr %2, align 4, !tbaa !10
  %3 = getelementptr inbounds nuw i8, ptr %0, i64 8
  store float 0x41F0000000000000, ptr %3, align 4, !tbaa !11
  %4 = getelementptr inbounds nuw i8, ptr %0, i64 12
  store i32 -1, ptr %4, align 4, !tbaa !12
  %5 = getelementptr inbounds nuw i8, ptr %0, i64 16
  store float 0x41F0000000000000, ptr %5, align 4, !tbaa !13
  %6 = getelementptr inbounds nuw i8, ptr %0, i64 20
  %7 = getelementptr inbounds nuw i8, ptr %0, i64 40
  tail call void @llvm.memset.p0.i64(ptr noundef nonnull align 4 dereferenceable(20) %6, i8 -1, i64 20, i1 false)
  tail call void @llvm.memset.p0.i64(ptr noundef nonnull align 4 dereferenceable(32) %7, i8 0, i64 32, i1 false), !tbaa !14
  ret void
}